; Function Attrs: mustprogress nounwind uwtable
define internal void @_ZN6hermes12_GLOBAL__N_112DumpFunctionD2Ev(ptr nocapture noundef nonnull align 8 dereferenceable(56) %this) unnamed_addr #1 align 2 {
entry:
  store ptr getelementptr inbounds ({ [5 x ptr] }, ptr @_ZTVN6hermes12_GLOBAL__N_112DumpFunctionE, i64 0, i32 0, i64 2), ptr %this, align 8
  %pass_ = getelementptr inbounds i8, ptr %this, i64 48
  %0 = load ptr, ptr %pass_, align 8
  %cmp.not.i = icmp eq ptr %0, null
  br i1 %cmp.not.i, label %_ZNSt10unique_ptrIN6hermes12FunctionPassESt14default_deleteIS1_EED2Ev.exit, label %_ZNKSt14default_deleteIN6hermes12FunctionPassEEclEPS1_.exit.i

_ZNKSt14default_deleteIN6hermes12FunctionPassEEclEPS1_.exit.i: ; preds = %entry
  %vtable.i.i = load ptr, ptr %0, align 8
  %vfn.i.i = getelementptr inbounds i8, ptr %vtable.i.i, i64 8
  %1 = load ptr, ptr %vfn.i.i, align 8
  tail call void %1(ptr noundef nonnull align 8 dereferenceable(32) %0) #14
  br label %_ZNSt10unique_ptrIN6hermes12FunctionPassESt14default_deleteIS1_EED2Ev.exit

_ZNSt10unique_ptrIN6hermes12FunctionPassESt14default_deleteIS1_EED2Ev.exit: ; preds = %entry, %_ZNKSt14default_deleteIN6hermes12FunctionPassEEclEPS1_.exit.i
  store ptr null, ptr %pass_, align 8
  ret void
}